target datalayout = "e-m:e-p270:32:32-p271:32:32-p272:64:64-i64:64-i128:128-f80:128-n8:16:32:64-S128"
target triple = "x86_64-pc-linux-gnu"

; Function Attrs: mustprogress nounwind uwtable
define internal noundef i32 @_ZL12ARRAY_LENGTHIjLj638EEjRAT0__KT_(ptr noundef nonnull align 4 dereferenceable(2552) %0) #1 {
  %2 = alloca ptr, align 8
  store ptr %0, ptr %2, align 8
  ret i32 638
}

; Function Attrs: mustprogress nounwind uwtable
define internal noundef i32 @_ZL12ARRAY_LENGTHItLj110EEjRAT0__KT_(ptr noundef nonnull align 2 dereferenceable(220) %0) #1 {
  %2 = alloca ptr, align 8
  store ptr %0, ptr %2, align 8
  ret i32 110
}

; Function Attrs: mustprogress nounwind uwtable
define internal noundef i32 @_ZL12ARRAY_LENGTHItLj825EEjRAT0__KT_(ptr noundef nonnull align 2 dereferenceable(1650) %0) #1 {
  %2 = alloca ptr, align 8
  store ptr %0, ptr %2, align 8
  ret i32 825
}

; Function Attrs: mustprogress nounwind uwtable
define internal noundef i64 @_ZL10_hb_ucd_dmj(i32 noundef %0) #1 {
  %2 = alloca i32, align 4
  store i32 %0, ptr %2, align 4
  %3 = load i32, ptr %2, align 4
  %4 = icmp ult i32 %3, 195102
  br i1 %4, label %5, label %33

5:                                                ; preds = %1
  %6 = load i32, ptr %2, align 4
  %7 = lshr i32 %6, 4
  %8 = lshr i32 %7, 5
  %9 = add i32 16702, %8
  %10 = zext i32 %9 to i64
  %11 = getelementptr inbounds [17884 x i8], ptr @_ZL10_hb_ucd_u8, i64 0, i64 %10
  %12 = load i8, ptr %11, align 1
  %13 = zext i8 %12 to i32
  %14 = shl i32 %13, 5
  %15 = load i32, ptr %2, align 4
  %16 = lshr i32 %15, 4
  %17 = and i32 %16, 31
  %18 = add i32 %14, %17
  %19 = add i32 17084, %18
  %20 = zext i32 %19 to i64
  %21 = getelementptr inbounds [17884 x i8], ptr @_ZL10_hb_ucd_u8, i64 0, i64 %20
  %22 = load i8, ptr %21, align 1
  %23 = zext i8 %22 to i32
  %24 = shl i32 %23, 4
  %25 = load i32, ptr %2, align 4
  %26 = and i32 %25, 15
  %27 = add i32 %24, %26
  %28 = add i32 6032, %27
  %29 = zext i32 %28 to i64
  %30 = getelementptr inbounds [9344 x i16], ptr @_ZL11_hb_ucd_u16, i64 0, i64 %29
  %31 = load i16, ptr %30, align 2
  %32 = zext i16 %31 to i32
  br label %34

33:                                               ; preds = %1
  br label %34

34:                                               ; preds = %33, %5
  %35 = phi i32 [ %32, %5 ], [ 0, %33 ]
  %36 = sext i32 %35 to i64
  ret i64 %36
}

; Function Attrs: mustprogress nounwind uwtable
define internal noundef zeroext i1 @_ZL24_hb_ucd_decompose_hanguljPjS_(i32 noundef %0, ptr noundef %1, ptr noundef %2) #1 {
  %4 = alloca i1, align 1
  %5 = alloca i32, align 4
  %6 = alloca ptr, align 8
  %7 = alloca ptr, align 8
  %8 = alloca i32, align 4
  store i32 %0, ptr %5, align 4
  store ptr %1, ptr %6, align 8
  store ptr %2, ptr %7, align 8
  %9 = load i32, ptr %5, align 4
  %10 = sub i32 %9, 44032
  store i32 %10, ptr %8, align 4
  %11 = load i32, ptr %8, align 4
  %12 = icmp uge i32 %11, 11172
  br i1 %12, label %13, label %14

13:                                               ; preds = %3
  store i1 false, ptr %4, align 1
  br label %38

14:                                               ; preds = %3
  %15 = load i32, ptr %8, align 4
  %16 = urem i32 %15, 28
  %17 = icmp ne i32 %16, 0
  br i1 %17, label %18, label %28

18:                                               ; preds = %14
  %19 = load i32, ptr %8, align 4
  %20 = udiv i32 %19, 28
  %21 = mul i32 %20, 28
  %22 = add i32 44032, %21
  %23 = load ptr, ptr %6, align 8
  store i32 %22, ptr %23, align 4
  %24 = load i32, ptr %8, align 4
  %25 = urem i32 %24, 28
  %26 = add i32 4519, %25
  %27 = load ptr, ptr %7, align 8
  store i32 %26, ptr %27, align 4
  store i1 true, ptr %4, align 1
  br label %38

28:                                               ; preds = %14
  %29 = load i32, ptr %8, align 4
  %30 = udiv i32 %29, 588
  %31 = add i32 4352, %30
  %32 = load ptr, ptr %6, align 8
  store i32 %31, ptr %32, align 4
  %33 = load i32, ptr %8, align 4
  %34 = urem i32 %33, 588
  %35 = udiv i32 %34, 28
  %36 = add i32 4449, %35
  %37 = load ptr, ptr %7, align 8
  store i32 %36, ptr %37, align 4
  store i1 true, ptr %4, align 1
  br label %38

38:                                               ; preds = %28, %18, %13
  %39 = load i1, ptr %4, align 1
  ret i1 %39
}

; Function Attrs: mustprogress uwtable
define internal noundef i32 @_ZL16hb_ucd_decomposeP18hb_unicode_funcs_tjPjS1_Pv(ptr noundef %0, i32 noundef %1, ptr noundef %2, ptr noundef %3, ptr noundef %4) #0 {
  %6 = alloca i32, align 4
  %7 = alloca ptr, align 8
  %8 = alloca i32, align 4
  %9 = alloca ptr, align 8
  %10 = alloca ptr, align 8
  %11 = alloca ptr, align 8
  %12 = alloca i32, align 4
  %13 = alloca i32, align 4
  %14 = alloca i64, align 8
  store ptr %0, ptr %7, align 8
  store i32 %1, ptr %8, align 4
  store ptr %2, ptr %9, align 8
  store ptr %3, ptr %10, align 8
  store ptr %4, ptr %11, align 8
  %15 = load i32, ptr %8, align 4
  %16 = load ptr, ptr %9, align 8
  %17 = load ptr, ptr %10, align 8
  %18 = call noundef zeroext i1 @_ZL24_hb_ucd_decompose_hanguljPjS_(i32 noundef %15, ptr noundef %16, ptr noundef %17)
  br i1 %18, label %19, label %20

19:                                               ; preds = %5
  store i32 1, ptr %6, align 4
  br label %98

20:                                               ; preds = %5
  %21 = load i32, ptr %8, align 4
  %22 = call noundef i64 @_ZL10_hb_ucd_dmj(i32 noundef %21)
  %23 = trunc i64 %22 to i32
  store i32 %23, ptr %12, align 4
  %24 = load i32, ptr %12, align 4
  %25 = icmp ne i32 %24, 0
  br i1 %25, label %27, label %26

26:                                               ; preds = %20
  store i32 0, ptr %6, align 4
  br label %98

27:                                               ; preds = %20
  %28 = load i32, ptr %12, align 4
  %29 = add i32 %28, -1
  store i32 %29, ptr %12, align 4
  %30 = load i32, ptr %12, align 4
  %31 = call noundef i32 @_ZL12ARRAY_LENGTHItLj825EEjRAT0__KT_(ptr noundef nonnull align 2 dereferenceable(1650) @_ZL18_hb_ucd_dm1_p0_map)
  %32 = call noundef i32 @_ZL12ARRAY_LENGTHItLj110EEjRAT0__KT_(ptr noundef nonnull align 2 dereferenceable(220) @_ZL18_hb_ucd_dm1_p2_map)
  %33 = add i32 %31, %32
  %34 = icmp ult i32 %30, %33
  br i1 %34, label %35, label %59

35:                                               ; preds = %27
  %36 = load i32, ptr %12, align 4
  %37 = call noundef i32 @_ZL12ARRAY_LENGTHItLj825EEjRAT0__KT_(ptr noundef nonnull align 2 dereferenceable(1650) @_ZL18_hb_ucd_dm1_p0_map)
  %38 = icmp ult i32 %36, %37
  br i1 %38, label %39, label %46

39:                                               ; preds = %35
  %40 = load i32, ptr %12, align 4
  %41 = zext i32 %40 to i64
  %42 = getelementptr inbounds [825 x i16], ptr @_ZL18_hb_ucd_dm1_p0_map, i64 0, i64 %41
  %43 = load i16, ptr %42, align 2
  %44 = zext i16 %43 to i32
  %45 = load ptr, ptr %9, align 8
  store i32 %44, ptr %45, align 4
  br label %57

46:                                               ; preds = %35
  %47 = call noundef i32 @_ZL12ARRAY_LENGTHItLj825EEjRAT0__KT_(ptr noundef nonnull align 2 dereferenceable(1650) @_ZL18_hb_ucd_dm1_p0_map)
  %48 = load i32, ptr %12, align 4
  %49 = sub i32 %48, %47
  store i32 %49, ptr %12, align 4
  %50 = load i32, ptr %12, align 4
  %51 = zext i32 %50 to i64
  %52 = getelementptr inbounds [110 x i16], ptr @_ZL18_hb_ucd_dm1_p2_map, i64 0, i64 %51
  %53 = load i16, ptr %52, align 2
  %54 = zext i16 %53 to i32
  %55 = or i32 131072, %54
  %56 = load ptr, ptr %9, align 8
  store i32 %55, ptr %56, align 4
  br label %57

57:                                               ; preds = %46, %39
  %58 = load ptr, ptr %10, align 8
  store i32 0, ptr %58, align 4
  store i32 1, ptr %6, align 4
  br label %98

59:                                               ; preds = %27
  %60 = call noundef i32 @_ZL12ARRAY_LENGTHItLj825EEjRAT0__KT_(ptr noundef nonnull align 2 dereferenceable(1650) @_ZL18_hb_ucd_dm1_p0_map)
  %61 = call noundef i32 @_ZL12ARRAY_LENGTHItLj110EEjRAT0__KT_(ptr noundef nonnull align 2 dereferenceable(220) @_ZL18_hb_ucd_dm1_p2_map)
  %62 = add i32 %60, %61
  %63 = load i32, ptr %12, align 4
  %64 = sub i32 %63, %62
  store i32 %64, ptr %12, align 4
  %65 = load i32, ptr %12, align 4
  %66 = call noundef i32 @_ZL12ARRAY_LENGTHIjLj638EEjRAT0__KT_(ptr noundef nonnull align 4 dereferenceable(2552) @_ZL19_hb_ucd_dm2_u32_map)
  %67 = icmp ult i32 %65, %66
  br i1 %67, label %68, label %81

68:                                               ; preds = %59
  %69 = load i32, ptr %12, align 4
  %70 = zext i32 %69 to i64
  %71 = getelementptr inbounds [638 x i32], ptr @_ZL19_hb_ucd_dm2_u32_map, i64 0, i64 %70
  %72 = load i32, ptr %71, align 4
  store i32 %72, ptr %13, align 4
  %73 = load i32, ptr %13, align 4
  %74 = lshr i32 %73, 21
  %75 = load ptr, ptr %9, align 8
  store i32 %74, ptr %75, align 4
  %76 = load i32, ptr %13, align 4
  %77 = lshr i32 %76, 14
  %78 = and i32 %77, 127
  %79 = or i32 %78, 768
  %80 = load ptr, ptr %10, align 8
  store i32 %79, ptr %80, align 4
  store i32 1, ptr %6, align 4
  br label %98

81:                                               ; preds = %59
  %82 = call noundef i32 @_ZL12ARRAY_LENGTHIjLj638EEjRAT0__KT_(ptr noundef nonnull align 4 dereferenceable(2552) @_ZL19_hb_ucd_dm2_u32_map)
  %83 = load i32, ptr %12, align 4
  %84 = sub i32 %83, %82
  store i32 %84, ptr %12, align 4
  %85 = load i32, ptr %12, align 4
  %86 = zext i32 %85 to i64
  %87 = getelementptr inbounds [388 x i64], ptr @_ZL19_hb_ucd_dm2_u64_map, i64 0, i64 %86
  %88 = load i64, ptr %87, align 8
  store i64 %88, ptr %14, align 8
  %89 = load i64, ptr %14, align 8
  %90 = lshr i64 %89, 42
  %91 = trunc i64 %90 to i32
  %92 = load ptr, ptr %9, align 8
  store i32 %91, ptr %92, align 4
  %93 = load i64, ptr %14, align 8
  %94 = lshr i64 %93, 21
  %95 = trunc i64 %94 to i32
  %96 = and i32 %95, 2097151
  %97 = load ptr, ptr %10, align 8
  store i32 %96, ptr %97, align 4
  store i32 1, ptr %6, align 4
  br label %98

98:                                               ; preds = %81, %68, %57, %26, %19
  %99 = load i32, ptr %6, align 4
  ret i32 %99
}