; Function Attrs: mustprogress nofree norecurse nosync nounwind willreturn memory(argmem: write) uwtable
define internal noundef range(i32 0, 2) i32 @_ZL16hb_ucd_decomposeP18hb_unicode_funcs_tjPjS1_Pv(ptr nocapture readnone %0, i32 noundef %1, ptr nocapture noundef writeonly %2, ptr nocapture noundef writeonly %3, ptr nocapture readnone %4) #4 {
  %6 = add i32 %1, -44032
  %7 = icmp ult i32 %6, 11172
  br i1 %7, label %8, label %_ZL24_hb_ucd_decompose_hanguljPjS_.exit

8:                                                ; preds = %5
  %.lhs.trunc.i = trunc nuw i32 %6 to i16
  %9 = urem i16 %.lhs.trunc.i, 28
  %.not.i = icmp eq i16 %9, 0
  br i1 %.not.i, label %13, label %10

10:                                               ; preds = %8
  %.zext.i = zext nneg i16 %9 to i32
  %11 = sub nuw nsw i32 %1, %.zext.i
  %12 = add nuw nsw i32 %.zext.i, 4519
  br label %_ZL24_hb_ucd_decompose_hanguljPjS_.exit.thread

13:                                               ; preds = %8
  %14 = udiv i16 %.lhs.trunc.i, 588
  %15 = or disjoint i16 %14, 4352
  %16 = zext nneg i16 %15 to i32
  %17 = urem i16 %.lhs.trunc.i, 588
  %18 = udiv i16 %17, 28
  %narrow.i = add nuw nsw i16 %18, 4449
  %19 = zext nneg i16 %narrow.i to i32
  br label %_ZL24_hb_ucd_decompose_hanguljPjS_.exit.thread

_ZL24_hb_ucd_decompose_hanguljPjS_.exit.thread:   ; preds = %10, %13
  %.sink = phi i32 [ %16, %13 ], [ %11, %10 ]
  %.sink.i = phi i32 [ %19, %13 ], [ %12, %10 ]
  store i32 %.sink, ptr %2, align 4
  br label %_ZL10_hb_ucd_dmj.exit.thread.sink.split

_ZL24_hb_ucd_decompose_hanguljPjS_.exit:          ; preds = %5
  %20 = icmp ult i32 %1, 195102
  br i1 %20, label %_ZL10_hb_ucd_dmj.exit, label %_ZL10_hb_ucd_dmj.exit.thread

_ZL10_hb_ucd_dmj.exit:                            ; preds = %_ZL24_hb_ucd_decompose_hanguljPjS_.exit
  %21 = lshr i32 %1, 4
  %22 = lshr i32 %1, 9
  %23 = add nuw nsw i32 %22, 16702
  %24 = zext nneg i32 %23 to i64
  %25 = getelementptr inbounds [17884 x i8], ptr @_ZL10_hb_ucd_u8, i64 0, i64 %24
  %26 = load i8, ptr %25, align 1
  %27 = zext i8 %26 to i32
  %28 = shl nuw nsw i32 %27, 5
  %29 = and i32 %21, 31
  %30 = add nuw nsw i32 %29, 17084
  %31 = add nuw nsw i32 %30, %28
  %32 = zext nneg i32 %31 to i64
  %33 = getelementptr inbounds [17884 x i8], ptr @_ZL10_hb_ucd_u8, i64 0, i64 %32
  %34 = load i8, ptr %33, align 1
  %35 = zext i8 %34 to i32
  %36 = shl nuw nsw i32 %35, 4
  %37 = and i32 %1, 15
  %38 = or disjoint i32 %37, 6032
  %39 = add nuw nsw i32 %38, %36
  %40 = zext nneg i32 %39 to i64
  %41 = getelementptr inbounds [9344 x i16], ptr @_ZL11_hb_ucd_u16, i64 0, i64 %40
  %42 = load i16, ptr %41, align 2
  %43 = zext i16 %42 to i64
  %.not = icmp eq i16 %42, 0
  br i1 %.not, label %_ZL10_hb_ucd_dmj.exit.thread, label %44

44:                                               ; preds = %_ZL10_hb_ucd_dmj.exit
  %45 = add nuw nsw i64 %43, 4294967295
  %46 = icmp ult i16 %42, 936
  br i1 %46, label %47, label %62

47:                                               ; preds = %44
  %48 = icmp ult i16 %42, 826
  br i1 %48, label %49, label %54

49:                                               ; preds = %47
  %50 = and i64 %45, 4294967295
  %51 = getelementptr inbounds [825 x i16], ptr @_ZL18_hb_ucd_dm1_p0_map, i64 0, i64 %50
  %52 = load i16, ptr %51, align 2
  %53 = zext i16 %52 to i32
  br label %61

54:                                               ; preds = %47
  %55 = add nuw nsw i64 %43, 4294966470
  %56 = and i64 %55, 4294967295
  %57 = getelementptr inbounds [110 x i16], ptr @_ZL18_hb_ucd_dm1_p2_map, i64 0, i64 %56
  %58 = load i16, ptr %57, align 2
  %59 = zext i16 %58 to i32
  %60 = or disjoint i32 %59, 131072
  br label %61

61:                                               ; preds = %54, %49
  %storemerge = phi i32 [ %60, %54 ], [ %53, %49 ]
  store i32 %storemerge, ptr %2, align 4
  br label %_ZL10_hb_ucd_dmj.exit.thread.sink.split

62:                                               ; preds = %44
  %63 = zext i16 %42 to i32
  %64 = add nsw i32 %63, -936
  %65 = icmp ult i32 %64, 638
  br i1 %65, label %66, label %74

66:                                               ; preds = %62
  %67 = zext nneg i32 %64 to i64
  %68 = getelementptr inbounds [638 x i32], ptr @_ZL19_hb_ucd_dm2_u32_map, i64 0, i64 %67
  %69 = load i32, ptr %68, align 4
  %70 = lshr i32 %69, 21
  store i32 %70, ptr %2, align 4
  %71 = lshr i32 %69, 14
  %72 = and i32 %71, 127
  %73 = or disjoint i32 %72, 768
  br label %_ZL10_hb_ucd_dmj.exit.thread.sink.split

74:                                               ; preds = %62
  %75 = add nuw nsw i64 %43, 4294965722
  %76 = and i64 %75, 4294967295
  %77 = getelementptr inbounds [388 x i64], ptr @_ZL19_hb_ucd_dm2_u64_map, i64 0, i64 %76
  %78 = load i64, ptr %77, align 8
  %79 = lshr i64 %78, 42
  %80 = trunc nuw nsw i64 %79 to i32
  store i32 %80, ptr %2, align 4
  %81 = lshr i64 %78, 21
  %82 = trunc i64 %81 to i32
  %83 = and i32 %82, 2097151
  br label %_ZL10_hb_ucd_dmj.exit.thread.sink.split

_ZL10_hb_ucd_dmj.exit.thread.sink.split:          ; preds = %61, %66, %74, %_ZL24_hb_ucd_decompose_hanguljPjS_.exit.thread
  %.sink.i.sink = phi i32 [ %.sink.i, %_ZL24_hb_ucd_decompose_hanguljPjS_.exit.thread ], [ %83, %74 ], [ %73, %66 ], [ 0, %61 ]
  store i32 %.sink.i.sink, ptr %3, align 4
  br label %_ZL10_hb_ucd_dmj.exit.thread

_ZL10_hb_ucd_dmj.exit.thread:                     ; preds = %_ZL10_hb_ucd_dmj.exit.thread.sink.split, %_ZL24_hb_ucd_decompose_hanguljPjS_.exit, %_ZL10_hb_ucd_dmj.exit
  %.0 = phi i32 [ 0, %_ZL10_hb_ucd_dmj.exit ], [ 0, %_ZL24_hb_ucd_decompose_hanguljPjS_.exit ], [ 1, %_ZL10_hb_ucd_dmj.exit.thread.sink.split ]
  ret i32 %.0
}